; Function Attrs: nounwind uwtable
define ptr @SSL_SESSION_new() local_unnamed_addr #3 {
  %1 = tail call i32 @OPENSSL_init_ssl(i64 noundef 2097152, ptr noundef null) #11
  %.not = icmp eq i32 %1, 0
  br i1 %.not, label %16, label %2

2:                                                ; preds = %0
  %3 = tail call noalias ptr @CRYPTO_zalloc(i64 noundef 928, ptr noundef nonnull @.str, i32 noundef 109) #11
  %4 = icmp eq ptr %3, null
  br i1 %4, label %16, label %5

5:                                                ; preds = %2
  %6 = getelementptr inbounds nuw i8, ptr %3, i64 856
  store i8 -1, ptr %6, align 8, !tbaa !72
  %7 = getelementptr inbounds nuw i8, ptr %3, i64 720
  store i64 1, ptr %7, align 8, !tbaa !75
  %8 = getelementptr inbounds nuw i8, ptr %3, i64 728
  store i64 304000000000, ptr %8, align 8, !tbaa !3
  %9 = getelementptr inbounds nuw i8, ptr %3, i64 736
  %10 = tail call i64 @ossl_time_now() #11
  store i64 %10, ptr %9, align 8, !tbaa !3
  %11 = getelementptr inbounds nuw i8, ptr %3, i64 744
  %.sroa.03.0.i.i = tail call i64 @llvm.uadd.sat.i64(i64 %10, i64 304000000000)
  store i64 %.sroa.03.0.i.i, ptr %11, align 8, !tbaa !3
  %12 = getelementptr inbounds nuw i8, ptr %3, i64 920
  store atomic i32 1, ptr %12 seq_cst, align 4, !tbaa !76
  %13 = getelementptr inbounds nuw i8, ptr %3, i64 784
  %14 = tail call i32 @CRYPTO_new_ex_data(i32 noundef 2, ptr noundef nonnull %3, ptr noundef nonnull %13) #11
  %.not16 = icmp eq i32 %14, 0
  br i1 %.not16, label %15, label %16

15:                                               ; preds = %5
  tail call void @CRYPTO_free(ptr noundef nonnull %3, ptr noundef nonnull @.str, i32 noundef 126) #11
  br label %16

16:                                               ; preds = %5, %2, %0, %15
  %.0 = phi ptr [ null, %15 ], [ null, %0 ], [ null, %2 ], [ %3, %5 ]
  ret ptr %.0
}